target datalayout = "e-m:e-p270:32:32-p271:32:32-p272:64:64-i64:64-i128:128-f80:128-n8:16:32:64-S128"
target triple = "x86_64-pc-linux-gnu"

%struct.req_list = type { ptr, ptr }
%struct.tmpi_req_ = type { i32, ptr, ptr, ptr, i32, i32, i64, i32, ptr, ptr }

; Function Attrs: mustprogress uwtable
define noundef i32 @_Z18tMPI_Req_list_initP8req_listi(ptr noundef %0, i32 noundef %1) #0 {
  %3 = alloca i32, align 4
  %4 = alloca ptr, align 8
  %5 = alloca i32, align 4
  %6 = alloca i32, align 4
  %7 = alloca i32, align 4
  store ptr %0, ptr %4, align 8, !tbaa !41
  store i32 %1, ptr %5, align 4, !tbaa !8
  call void @llvm.lifetime.start.p0(i64 4, ptr %6) #7
  %8 = load i32, ptr %5, align 4, !tbaa !8
  %9 = sext i32 %8 to i64
  %10 = mul i64 72, %9
  %11 = call noundef ptr @_Z11tMPI_Mallocm(i64 noundef %10)
  %12 = load ptr, ptr %4, align 8, !tbaa !41
  %13 = getelementptr inbounds nuw %struct.req_list, ptr %12, i32 0, i32 1
  store ptr %11, ptr %13, align 8, !tbaa !43
  %14 = load ptr, ptr %4, align 8, !tbaa !41
  %15 = getelementptr inbounds nuw %struct.req_list, ptr %14, i32 0, i32 1
  %16 = load ptr, ptr %15, align 8, !tbaa !43
  %17 = icmp eq ptr %16, null
  br i1 %17, label %18, label %19

18:                                               ; preds = %2
  store i32 1, ptr %3, align 4
  store i32 1, ptr %7, align 4
  br label %88

19:                                               ; preds = %2
  %20 = load ptr, ptr %4, align 8, !tbaa !41
  %21 = getelementptr inbounds nuw %struct.req_list, ptr %20, i32 0, i32 1
  %22 = load ptr, ptr %21, align 8, !tbaa !43
  %23 = load ptr, ptr %4, align 8, !tbaa !41
  %24 = getelementptr inbounds nuw %struct.req_list, ptr %23, i32 0, i32 0
  store ptr %22, ptr %24, align 8, !tbaa !46
  store i32 0, ptr %6, align 4, !tbaa !8
  br label %25

25:                                               ; preds = %84, %19
  %26 = load i32, ptr %6, align 4, !tbaa !8
  %27 = load i32, ptr %5, align 4, !tbaa !8
  %28 = icmp slt i32 %26, %27
  br i1 %28, label %29, label %87

29:                                               ; preds = %25
  %30 = load i32, ptr %6, align 4, !tbaa !8
  %31 = icmp eq i32 %30, 0
  br i1 %31, label %32, label %40

32:                                               ; preds = %29
  %33 = load ptr, ptr %4, align 8, !tbaa !41
  %34 = getelementptr inbounds nuw %struct.req_list, ptr %33, i32 0, i32 0
  %35 = load ptr, ptr %34, align 8, !tbaa !46
  %36 = load i32, ptr %6, align 4, !tbaa !8
  %37 = sext i32 %36 to i64
  %38 = getelementptr inbounds %struct.tmpi_req_, ptr %35, i64 %37
  %39 = getelementptr inbounds nuw %struct.tmpi_req_, ptr %38, i32 0, i32 9
  store ptr null, ptr %39, align 8, !tbaa !47
  br label %55

40:                                               ; preds = %29
  %41 = load ptr, ptr %4, align 8, !tbaa !41
  %42 = getelementptr inbounds nuw %struct.req_list, ptr %41, i32 0, i32 0
  %43 = load ptr, ptr %42, align 8, !tbaa !46
  %44 = load i32, ptr %6, align 4, !tbaa !8
  %45 = sub nsw i32 %44, 1
  %46 = sext i32 %45 to i64
  %47 = getelementptr inbounds %struct.tmpi_req_, ptr %43, i64 %46
  %48 = load ptr, ptr %4, align 8, !tbaa !41
  %49 = getelementptr inbounds nuw %struct.req_list, ptr %48, i32 0, i32 0
  %50 = load ptr, ptr %49, align 8, !tbaa !46
  %51 = load i32, ptr %6, align 4, !tbaa !8
  %52 = sext i32 %51 to i64
  %53 = getelementptr inbounds %struct.tmpi_req_, ptr %50, i64 %52
  %54 = getelementptr inbounds nuw %struct.tmpi_req_, ptr %53, i32 0, i32 9
  store ptr %47, ptr %54, align 8, !tbaa !47
  br label %55

55:                                               ; preds = %40, %32
  %56 = load i32, ptr %6, align 4, !tbaa !8
  %57 = load i32, ptr %5, align 4, !tbaa !8
  %58 = sub nsw i32 %57, 1
  %59 = icmp sge i32 %56, %58
  br i1 %59, label %60, label %68

60:                                               ; preds = %55
  %61 = load ptr, ptr %4, align 8, !tbaa !41
  %62 = getelementptr inbounds nuw %struct.req_list, ptr %61, i32 0, i32 0
  %63 = load ptr, ptr %62, align 8, !tbaa !46
  %64 = load i32, ptr %6, align 4, !tbaa !8
  %65 = sext i32 %64 to i64
  %66 = getelementptr inbounds %struct.tmpi_req_, ptr %63, i64 %65
  %67 = getelementptr inbounds nuw %struct.tmpi_req_, ptr %66, i32 0, i32 8
  store ptr null, ptr %67, align 8, !tbaa !49
  br label %83

68:                                               ; preds = %55
  %69 = load ptr, ptr %4, align 8, !tbaa !41
  %70 = getelementptr inbounds nuw %struct.req_list, ptr %69, i32 0, i32 0
  %71 = load ptr, ptr %70, align 8, !tbaa !46
  %72 = load i32, ptr %6, align 4, !tbaa !8
  %73 = add nsw i32 %72, 1
  %74 = sext i32 %73 to i64
  %75 = getelementptr inbounds %struct.tmpi_req_, ptr %71, i64 %74
  %76 = load ptr, ptr %4, align 8, !tbaa !41
  %77 = getelementptr inbounds nuw %struct.req_list, ptr %76, i32 0, i32 0
  %78 = load ptr, ptr %77, align 8, !tbaa !46
  %79 = load i32, ptr %6, align 4, !tbaa !8
  %80 = sext i32 %79 to i64
  %81 = getelementptr inbounds %struct.tmpi_req_, ptr %78, i64 %80
  %82 = getelementptr inbounds nuw %struct.tmpi_req_, ptr %81, i32 0, i32 8
  store ptr %75, ptr %82, align 8, !tbaa !49
  br label %83

83:                                               ; preds = %68, %60
  br label %84

84:                                               ; preds = %83
  %85 = load i32, ptr %6, align 4, !tbaa !8
  %86 = add nsw i32 %85, 1
  store i32 %86, ptr %6, align 4, !tbaa !8
  br label %25, !llvm.loop !50

87:                                               ; preds = %25
  store i32 0, ptr %3, align 4
  store i32 1, ptr %7, align 4
  br label %88

88:                                               ; preds = %87, %18
  call void @llvm.lifetime.end.p0(i64 4, ptr %6) #7
  %89 = load i32, ptr %3, align 4
  ret i32 %89
}