; Function Attrs: mustprogress uwtable
define noundef range(i32 0, 2) i32 @_Z18tMPI_Req_list_initP8req_listi(ptr noundef writeonly captures(none) initializes((8, 16)) %0, i32 noundef %1) local_unnamed_addr #0 {
  %3 = sext i32 %1 to i64
  %4 = mul nsw i64 %3, 72
  %5 = tail call noundef ptr @_Z11tMPI_Mallocm(i64 noundef %4)
  %6 = getelementptr inbounds nuw i8, ptr %0, i64 8
  store ptr %5, ptr %6, align 8, !tbaa !36
  %7 = icmp eq ptr %5, null
  br i1 %7, label %.loopexit, label %8

8:                                                ; preds = %2
  store ptr %5, ptr %0, align 8, !tbaa !39
  %invariant.gep = getelementptr i8, ptr %5, i64 -72
  %invariant.gep26 = getelementptr inbounds nuw i8, ptr %5, i64 72
  %9 = icmp sgt i32 %1, 0
  br i1 %9, label %.lr.ph, label %.loopexit

.lr.ph:                                           ; preds = %8
  %10 = getelementptr inbounds nuw i8, ptr %5, i64 64
  %11 = add nsw i32 %1, -1
  %12 = zext nneg i32 %11 to i64
  %wide.trip.count = zext nneg i32 %1 to i64
  br label %13

13:                                               ; preds = %.lr.ph, %18
  %indvars.iv = phi i64 [ 0, %.lr.ph ], [ %indvars.iv.next, %18 ]
  %14 = icmp eq i64 %indvars.iv, 0
  br i1 %14, label %15, label %16

15:                                               ; preds = %13
  store ptr null, ptr %10, align 8, !tbaa !40
  br label %18

16:                                               ; preds = %13
  %gep = getelementptr %struct.tmpi_req_, ptr %invariant.gep, i64 %indvars.iv
  %17 = getelementptr inbounds nuw %struct.tmpi_req_, ptr %5, i64 %indvars.iv, i32 9
  store ptr %gep, ptr %17, align 8, !tbaa !40
  br label %18

18:                                               ; preds = %16, %15
  %.not = icmp samesign ult i64 %indvars.iv, %12
  %gep27 = getelementptr inbounds nuw %struct.tmpi_req_, ptr %invariant.gep26, i64 %indvars.iv
  %spec.select = select i1 %.not, ptr %gep27, ptr null
  %19 = getelementptr inbounds nuw %struct.tmpi_req_, ptr %5, i64 %indvars.iv, i32 8
  store ptr %spec.select, ptr %19, align 8, !tbaa !42
  %indvars.iv.next = add nuw nsw i64 %indvars.iv, 1
  %exitcond.not = icmp eq i64 %indvars.iv.next, %wide.trip.count
  br i1 %exitcond.not, label %.loopexit, label %13, !llvm.loop !43

.loopexit:                                        ; preds = %18, %8, %2
  %.023 = phi i32 [ 1, %2 ], [ 0, %8 ], [ 0, %18 ]
  ret i32 %.023
}